; Function Attrs: null_pointer_is_valid sspstrong uwtable
define internal fastcc i32 @dissect_ctrl_pdu_without_data(ptr noundef %0, ptr noundef %1, ptr noundef %2, i32 noundef range(i32 3, 5) %3) unnamed_addr #0 {
  %5 = tail call i32 @tvb_reported_length_remaining(ptr noundef %0, i32 noundef %3)
  %6 = icmp sgt i32 %5, 3
  br i1 %6, label %7, label %14

7:                                                ; preds = %4
  %8 = tail call i32 @tvb_reported_length_remaining(ptr noundef %0, i32 noundef %3)
  %9 = add i32 %8, -3
  %10 = tail call ptr @proto_tree_add_expert(ptr noundef %2, ptr noundef %1, ptr noundef nonnull @ei_unknown_data, ptr noundef %0, i32 noundef %3, i32 noundef %9)
  %11 = tail call i32 @tvb_reported_length_remaining(ptr noundef %0, i32 noundef %3)
  %12 = add nsw i32 %3, -3
  %13 = add i32 %12, %11
  br label %14

14:                                               ; preds = %7, %4
  %.0 = phi i32 [ %13, %7 ], [ %3, %4 ]
  ret i32 %.0
}